; Function Attrs: nounwind uwtable
define dso_local ptr @SearchSysCacheCopyAttName(i32 noundef %0, ptr noundef %1) local_unnamed_addr #0 {
  %3 = zext i32 %0 to i64
  %4 = ptrtoint ptr %1 to i64
  %5 = load ptr, ptr getelementptr inbounds nuw (i8, ptr @SysCache, i64 48), align 16
  %6 = tail call ptr @SearchCatCache2(ptr noundef %5, i64 noundef %3, i64 noundef %4) #11
  %.not.i = icmp eq ptr %6, null
  br i1 %.not.i, label %SearchSysCacheAttName.exit.thread, label %7

7:                                                ; preds = %2
  %8 = getelementptr i8, ptr %6, i64 16
  %.val.i = load ptr, ptr %8, align 8
  %9 = getelementptr inbounds nuw i8, ptr %.val.i, i64 22
  %10 = load i8, ptr %9, align 2
  %11 = zext i8 %10 to i64
  %12 = getelementptr inbounds nuw i8, ptr %.val.i, i64 %11
  %13 = getelementptr inbounds nuw i8, ptr %12, i64 91
  %14 = load i8, ptr %13, align 1, !range !8, !noundef !9
  %15 = trunc nuw i8 %14 to i1
  br i1 %15, label %SearchSysCacheAttName.exit.thread.sink.split, label %SearchSysCacheAttName.exit

SearchSysCacheAttName.exit:                       ; preds = %7
  %16 = tail call ptr @heap_copytuple(ptr noundef nonnull %6) #11
  br label %SearchSysCacheAttName.exit.thread.sink.split

SearchSysCacheAttName.exit.thread.sink.split:     ; preds = %7, %SearchSysCacheAttName.exit
  %.0.ph = phi ptr [ %16, %SearchSysCacheAttName.exit ], [ null, %7 ]
  tail call void @ReleaseCatCache(ptr noundef nonnull %6) #11
  br label %SearchSysCacheAttName.exit.thread

SearchSysCacheAttName.exit.thread:                ; preds = %SearchSysCacheAttName.exit.thread.sink.split, %2
  %.0 = phi ptr [ null, %2 ], [ %.0.ph, %SearchSysCacheAttName.exit.thread.sink.split ]
  ret ptr %.0
}